; Function Attrs: mustprogress uwtable
define hidden void @_ZN5ceres8internal19TripletSparseMatrix12ScaleColumnsEPKd(ptr nocapture noundef nonnull readonly align 8 dereferenceable(48) %0, ptr noundef readonly %1) unnamed_addr #4 align 2 personality ptr @__gxx_personality_v0 {
  %3 = alloca %"class.google::LogMessageFatal", align 8
  %.not = icmp eq ptr %1, null
  br i1 %.not, label %9, label %.critedge.preheader

.critedge.preheader:                              ; preds = %2
  %4 = getelementptr inbounds i8, ptr %0, i64 20
  %5 = load i32, ptr %4, align 4
  %6 = icmp sgt i32 %5, 0
  br i1 %6, label %.lr.ph, label %.critedge._crit_edge

.lr.ph:                                           ; preds = %.critedge.preheader
  %7 = getelementptr inbounds i8, ptr %0, i64 40
  %8 = getelementptr inbounds i8, ptr %0, i64 32
  br label %.critedge

9:                                                ; preds = %2
  call void @_ZN6google15LogMessageFatalC1EPKci(ptr noundef nonnull align 8 dereferenceable(96) %3, ptr noundef nonnull @.str.3, i32 noundef 195)
  %10 = invoke noundef nonnull align 8 dereferenceable(8) ptr @_ZN6google10LogMessage6streamEv(ptr noundef nonnull align 8 dereferenceable(96) %3)
          to label %11 unwind label %14

11:                                               ; preds = %9
  %12 = invoke noundef nonnull align 8 dereferenceable(8) ptr @_ZStlsISt11char_traitsIcEERSt13basic_ostreamIcT_ES5_PKc(ptr noundef nonnull align 8 dereferenceable(8) %10, ptr noundef nonnull @.str.13)
          to label %13 unwind label %14

13:                                               ; preds = %11
  call void @_ZN6google15LogMessageFatalD1Ev(ptr noundef nonnull align 8 dereferenceable(96) %3) #27
  unreachable

14:                                               ; preds = %11, %9
  %15 = landingpad { ptr, i32 }
          cleanup
  call void @_ZN6google15LogMessageFatalD1Ev(ptr noundef nonnull align 8 dereferenceable(96) %3) #27
  unreachable

.critedge:                                        ; preds = %.lr.ph, %.critedge
  %indvars.iv = phi i64 [ 0, %.lr.ph ], [ %indvars.iv.next, %.critedge ]
  %16 = load ptr, ptr %7, align 8
  %17 = getelementptr inbounds double, ptr %16, i64 %indvars.iv
  %18 = load double, ptr %17, align 8
  %19 = load ptr, ptr %8, align 8
  %20 = getelementptr inbounds i32, ptr %19, i64 %indvars.iv
  %21 = load i32, ptr %20, align 4
  %22 = sext i32 %21 to i64
  %23 = getelementptr inbounds double, ptr %1, i64 %22
  %24 = load double, ptr %23, align 8
  %25 = fmul double %18, %24
  store double %25, ptr %17, align 8
  %indvars.iv.next = add nuw nsw i64 %indvars.iv, 1
  %26 = load i32, ptr %4, align 4
  %27 = sext i32 %26 to i64
  %28 = icmp slt i64 %indvars.iv.next, %27
  br i1 %28, label %.critedge, label %.critedge._crit_edge, !llvm.loop !29

.critedge._crit_edge:                             ; preds = %.critedge, %.critedge.preheader
  ret void
}